; Function Attrs: mustprogress nounwind uwtable
define noundef zeroext i1 @_ZN5boost7process2v211environment6detail13is_executableERKNS_10filesystem4pathERNS_6system10error_codeE(ptr noundef nonnull align 8 dereferenceable(32) %0, ptr noundef nonnull align 8 dereferenceable(24) %1) local_unnamed_addr #12 personality ptr @__gxx_personality_v0 {
  %3 = alloca %"class.boost::filesystem::file_status", align 4
  call void @llvm.lifetime.start.p0(i64 8, ptr nonnull %3)
  invoke void @_ZN5boost10filesystem6detail6statusERKNS0_4pathEPNS_6system10error_codeE(ptr dead_on_unwind nonnull writable sret(%"class.boost::filesystem::file_status") align 4 %3, ptr noundef nonnull align 8 dereferenceable(32) %0, ptr noundef nonnull align 8 dereferenceable(24) %1)
          to label %_ZN5boost10filesystem15is_regular_fileERKNS0_4pathERNS_6system10error_codeE.exit unwind label %4

4:                                                ; preds = %2
  %5 = landingpad { ptr, i32 }
          catch ptr null
  %6 = extractvalue { ptr, i32 } %5, 0
  call void @__clang_call_terminate(ptr %6) #19
  unreachable

_ZN5boost10filesystem15is_regular_fileERKNS0_4pathERNS_6system10error_codeE.exit: ; preds = %2
  %7 = load i32, ptr %3, align 4, !tbaa !20
  %8 = icmp eq i32 %7, 2
  call void @llvm.lifetime.end.p0(i64 8, ptr nonnull %3)
  br i1 %8, label %9, label %13

9:                                                ; preds = %_ZN5boost10filesystem15is_regular_fileERKNS0_4pathERNS_6system10error_codeE.exit
  %10 = load ptr, ptr %0, align 8, !tbaa !24
  %11 = call i32 @access(ptr noundef %10, i32 noundef 1) #18
  %12 = icmp eq i32 %11, 0
  br label %13

13:                                               ; preds = %9, %_ZN5boost10filesystem15is_regular_fileERKNS0_4pathERNS_6system10error_codeE.exit
  %14 = phi i1 [ false, %_ZN5boost10filesystem15is_regular_fileERKNS0_4pathERNS_6system10error_codeE.exit ], [ %12, %9 ]
  ret i1 %14
}